#include <math.h>
#include <stdio.h>
#include <stdlib.h>
#include <string.h>

int zimu(char c)
{
	if((c>=65&&c<=90)||(c>=97&&c<=122))
	{
		return 1;
	}
	else 
	{
		return 0;
	}
}
int main()
{
	char str[500];
	int max1=0;
	int max2=0;
	int min1=0;
	int min2=0;
	int max=0;
	int min=51;
	int flag=0;
	int i,k,len=0;
	gets(str);
	k=strlen(str);
	if(k>50)
	{
		k=50;
	}
	flag=0;
	for(i=0;i<k;i++)
	{
		if(zimu(str[i])==1&&flag==0)
		{
			if(i!=k-1)
			{
			len=1;
			flag=1;
			}
			else if(i==k-1)
			{
				if(max<1)
				{
					max1=i;
					max2=i+1;
				}

				if(min>1)
				{
					min1=i;
					min2=i+1;
				}
			}


		}
		else if(zimu(str[i])==1&&flag==1&&(i!=k-1))
		{
			len++;
		}
		else if(zimu(str[i])==1&&flag==1&&(i==k-1))
		{
			len++;
			if(len>max)
			{
				max1=i-len+1;
				max2=i+1;
				max=len;
			}
			if(len<min)
			{
				min1=i-len+1;
				min2=i+1;
				min=len;
			}
		}
		else if(zimu(str[i])==0&&flag==1)
		{
			flag=0;
			if(len>max)
			{
				max1=i-len;
				max2=i;
				max=len;
			}
			if(len<min)
			{
				min1=i-len;
				min2=i;
				min=len;
			}
		}
	}
	for(i=max1;i<max2;i++)
	{
		printf("%c",str[i]);
	}
	printf("\n");
	for(i=min1;i<min2;i++)
	{
		printf("%c",str[i]);
	}
	printf("\n");
  return 0;
}